Certificate:
    Data:
        Version: 3 (0x2)
        Serial Number: 1 (0x1)
    Signature Algorithm: sha1WithRSAEncryption
        Issuer: DC=tech, DC=sourced, O=Sourced, OU=Sourced Box Root CA, CN=Sourced Box Root CA
        Validity
            Not Before: Aug 21 13:34:29 2019 GMT
            Not After : Aug 20 13:34:29 2029 GMT
        Subject: DC=tech, DC=sourced, O=Sourced, OU=Sourced Box Root CA, CN=Sourced Box Root CA
        Subject Public Key Info:
            Public Key Algorithm: rsaEncryption
                Public-Key: (2048 bit)
                Modulus:
                    00:be:b0:a0:be:15:eb:28:79:f5:97:a6:6d:b8:c0:
                    4b:64:5a:28:fe:d2:a6:79:15:01:b9:72:6c:1d:0d:
                    20:36:fd:58:9e:75:7c:39:8c:30:29:94:d1:e7:a0:
                    f4:d1:54:a6:60:b7:5b:83:e2:e2:70:56:2a:4b:31:
                    5b:9f:75:69:4e:f0:21:b0:b4:b0:9f:fb:a1:5d:e4:
                    a0:e0:9f:e1:43:dd:28:c5:de:af:40:29:f8:14:e6:
                    37:44:97:e8:ac:89:0b:0c:29:41:12:77:b3:e9:2a:
                    5c:8b:ad:f8:66:6c:6f:8a:96:b4:6a:28:f2:15:7c:
                    af:99:a9:84:67:a8:26:a2:8e:a0:87:c9:c4:a5:44:
                    bb:bd:0e:bf:bf:0e:8a:3a:54:8d:61:a9:3e:cc:0e:
                    33:dc:98:9a:ef:4a:04:c9:24:ab:bb:82:61:6a:e5:
                    3b:0b:ee:8f:00:0a:3e:18:b8:78:00:e8:0f:00:ea:
                    98:ba:26:df:16:62:80:8d:86:4e:bf:64:43:f5:a2:
                    e5:d8:b8:1b:cc:3a:38:a2:1b:01:0a:73:9c:4b:2f:
                    33:d4:25:b1:a1:33:73:97:04:a5:97:f6:b0:38:88:
                    bc:82:6a:5b:42:fd:40:e7:36:4a:ef:9e:35:24:12:
                    a6:88:cf:f8:52:e5:00:a9:4c:06:7e:41:47:6b:f7:
                    13:fb
                Exponent: 65537 (0x10001)
        X509v3 extensions:
            X509v3 Key Usage: critical
                Certificate Sign, CRL Sign
            X509v3 Basic Constraints: critical
                CA:TRUE
            X509v3 Subject Key Identifier: 
                D4:74:91:48:BD:44:96:20:E6:55:FC:E5:07:ED:AD:11:90:41:D3:29
            X509v3 Authority Key Identifier: 
                keyid:D4:74:91:48:BD:44:96:20:E6:55:FC:E5:07:ED:AD:11:90:41:D3:29

    Signature Algorithm: sha1WithRSAEncryption
         98:6f:fe:be:b1:f1:b1:a9:31:c2:8e:54:98:c2:1a:62:8c:a4:
         ce:6d:2e:9e:30:60:de:da:5f:a0:eb:87:98:6b:96:79:82:d3:
         75:09:a2:cb:dd:c5:54:59:62:47:60:d9:e1:d4:a7:d2:b4:a5:
         8c:4f:e1:15:40:6b:8e:1a:36:d9:06:28:82:a3:64:f2:6c:88:
         63:bf:d2:fc:79:56:9b:d1:2a:9d:33:2c:3c:9e:13:39:24:4c:
         81:62:de:f1:ae:6e:99:b7:d2:d4:00:3a:13:4f:8e:30:d9:47:
         44:60:93:97:77:bd:04:07:64:16:a8:13:6c:e8:be:69:d9:29:
         d9:34:69:fc:e0:44:e3:ae:8b:91:2b:b9:ae:d8:5e:34:fc:92:
         f0:9b:8b:d6:39:77:5b:4b:6c:3d:b6:bc:a3:39:c2:f8:94:3d:
         7d:3a:a6:c3:de:25:3a:db:62:a8:67:87:76:50:1e:14:55:e6:
         21:53:86:6d:7e:24:bd:d4:a0:e6:a2:93:be:f2:b4:c1:12:a1:
         84:b7:53:d7:25:b9:c1:5b:14:60:9d:ff:2a:89:93:36:7c:a9:
         de:b4:45:0d:cf:b1:b9:52:ca:59:3a:7b:5a:cf:39:5b:21:c6:
         68:3a:d4:de:99:ad:63:0c:a8:f2:e2:00:0d:a1:eb:1c:18:db:
         85:39:c4:5f
-----BEGIN CERTIFICATE-----
MIID2DCCAsCgAwIBAgIBATANBgkqhkiG9w0BAQUFADB9MRQwEgYKCZImiZPyLGQB
GRYEdGVjaDEXMBUGCgmSJomT8ixkARkWB3NvdXJjZWQxEDAOBgNVBAoMB1NvdXJj
ZWQxHDAaBgNVBAsME1NvdXJjZWQgQm94IFJvb3QgQ0ExHDAaBgNVBAMME1NvdXJj
ZWQgQm94IFJvb3QgQ0EwHhcNMTkwODIxMTMzNDI5WhcNMjkwODIwMTMzNDI5WjB9
MRQwEgYKCZImiZPyLGQBGRYEdGVjaDEXMBUGCgmSJomT8ixkARkWB3NvdXJjZWQx
EDAOBgNVBAoMB1NvdXJjZWQxHDAaBgNVBAsME1NvdXJjZWQgQm94IFJvb3QgQ0Ex
HDAaBgNVBAMME1NvdXJjZWQgQm94IFJvb3QgQ0EwggEiMA0GCSqGSIb3DQEBAQUA
A4IBDwAwggEKAoIBAQC+sKC+FesoefWXpm24wEtkWij+0qZ5FQG5cmwdDSA2/Vie
dXw5jDAplNHnoPTRVKZgt1uD4uJwVipLMVufdWlO8CGwtLCf+6Fd5KDgn+FD3SjF
3q9AKfgU5jdEl+isiQsMKUESd7PpKlyLrfhmbG+KlrRqKPIVfK+ZqYRnqCaijqCH
ycSlRLu9Dr+/Doo6VI1hqT7MDjPcmJrvSgTJJKu7gmFq5TsL7o8ACj4YuHgA6A8A
6pi6Jt8WYoCNhk6/ZEP1ouXYuBvMOjiiGwEKc5xLLzPUJbGhM3OXBKWX9rA4iLyC
altC/UDnNkrvnjUkEqaIz/hS5QCpTAZ+QUdr9xP7AgMBAAGjYzBhMA4GA1UdDwEB
/wQEAwIBBjAPBgNVHRMBAf8EBTADAQH/MB0GA1UdDgQWBBTUdJFIvUSWIOZV/OUH
7a0RkEHTKTAfBgNVHSMEGDAWgBTUdJFIvUSWIOZV/OUH7a0RkEHTKTANBgkqhkiG
9w0BAQUFAAOCAQEAmG/+vrHxsakxwo5UmMIaYoykzm0unjBg3tpfoOuHmGuWeYLT
dQmiy93FVFliR2DZ4dSn0rSljE/hFUBrjho22QYogqNk8myIY7/S/HlWm9EqnTMs
PJ4TOSRMgWLe8a5umbfS1AA6E0+OMNlHRGCTl3e9BAdkFqgTbOi+adkp2TRp/OBE
466LkSu5rtheNPyS8JuL1jl3W0tsPba8oznC+JQ9fTqmw94lOttiqGeHdlAeFFXm
IVOGbX4kvdSg5qKTvvK0wRKhhLdT1yW5wVsUYJ3/KomTNnyp3rRFDc+xuVLKWTp7
Ws85WyHGaDrU3pmtYwyo8uIADaHrHBjbhTnEXw==
-----END CERTIFICATE-----
