Certificate:
    Data:
        Version: 3 (0x2)
        Serial Number: 2 (0x2)
    Signature Algorithm: sha1WithRSAEncryption
        Issuer: DC=tech, DC=sourced, O=Sourced, OU=Sourced Box Root CA, CN=Sourced Box Root CA
        Validity
            Not Before: Aug 21 13:35:00 2019 GMT
            Not After : Aug 20 13:35:00 2029 GMT
        Subject: DC=tech, DC=sourced, O=Sourced, OU=Sourced Box Signing CA, CN=Sourced Box Signing CA
        Subject Public Key Info:
            Public Key Algorithm: rsaEncryption
                Public-Key: (2048 bit)
                Modulus:
                    00:bf:27:77:ab:c8:e4:0b:ea:3e:af:2e:6d:c4:cd:
                    22:d6:31:67:78:1d:dc:12:66:d0:41:ab:e7:97:1f:
                    ec:70:8a:03:25:83:9e:2e:5c:26:a7:ec:81:2c:ae:
                    70:d1:37:53:87:bb:b9:42:87:28:a4:c8:8c:03:02:
                    30:e9:da:8b:06:ac:be:38:1d:1c:9c:4c:8e:f9:75:
                    39:b7:47:b1:b1:ea:67:b6:92:9f:af:6c:67:07:8b:
                    b6:69:ed:94:f2:4f:5b:e3:e5:af:d3:38:ee:12:cf:
                    e1:e8:3d:eb:ae:ec:19:9e:a5:e0:d0:5a:a0:b1:f2:
                    08:01:d0:72:4c:6c:84:af:b7:22:10:72:10:34:37:
                    3e:fa:41:aa:8d:e1:0b:e8:d4:e6:95:84:bd:2b:9b:
                    ae:46:d1:b1:a5:97:b9:ed:38:76:9c:83:7f:b9:c1:
                    c5:00:ef:ee:62:8f:bd:9e:2f:96:ad:45:00:10:a7:
                    de:8e:51:07:a7:5f:ef:9e:ea:8f:95:4f:6e:33:76:
                    c9:e9:17:18:46:ed:c7:0b:fb:b0:e3:80:ca:f5:92:
                    b6:b8:20:b2:38:44:ee:d2:ef:57:7e:04:ac:e3:59:
                    f0:f1:c4:b4:6e:77:be:a8:dd:6f:b5:42:43:5c:7d:
                    39:9f:7b:2a:ab:d7:7e:84:fd:23:e7:b8:71:56:cd:
                    74:61
                Exponent: 65537 (0x10001)
        X509v3 extensions:
            X509v3 Key Usage: critical
                Certificate Sign, CRL Sign
            X509v3 Basic Constraints: critical
                CA:TRUE, pathlen:0
            X509v3 Subject Key Identifier: 
                FB:A1:7F:2B:15:A3:ED:BA:9B:B2:14:17:CE:A3:88:26:D3:07:16:57
            X509v3 Authority Key Identifier: 
                keyid:D4:74:91:48:BD:44:96:20:E6:55:FC:E5:07:ED:AD:11:90:41:D3:29

    Signature Algorithm: sha1WithRSAEncryption
         64:69:93:15:5e:2b:0c:48:b0:32:47:c8:d8:f6:d2:9e:31:b9:
         c6:da:50:02:c0:77:35:7b:62:b5:c2:79:8f:47:ee:fe:7e:16:
         2e:3c:f9:d3:b0:f5:81:de:50:b1:c5:73:a5:9b:5c:c3:48:38:
         61:83:6d:34:99:44:f8:98:91:aa:71:d3:aa:f7:6f:4a:93:77:
         a8:f3:3a:dd:ef:07:19:96:2a:4c:30:c5:d6:25:1d:cb:f9:55:
         b7:c9:d6:1c:1f:9f:72:5d:ab:e4:da:67:1f:a4:d5:af:ee:96:
         18:ab:27:39:09:18:4c:8f:1d:9c:70:8d:49:3d:93:93:cb:ae:
         68:b9:b1:a1:e6:7c:82:91:79:e0:0c:bb:51:77:96:82:5b:3e:
         d4:f0:91:3f:7e:fd:12:60:c1:23:e9:12:ee:04:ab:26:94:a4:
         83:31:60:df:e3:74:7d:14:17:c3:6c:29:1f:5b:1e:51:80:f2:
         48:da:5c:11:c5:1b:d8:0b:01:42:51:e6:ec:74:3a:4f:67:cd:
         ce:ac:b2:c5:19:4e:ce:9b:08:03:e2:93:b1:68:c7:f3:68:6a:
         4e:43:41:22:86:76:5e:42:49:a2:2f:2f:da:7c:fc:17:29:c8:
         03:28:71:33:2b:0d:1c:63:6e:16:8d:6f:2a:47:ce:07:a9:bd:
         4b:79:66:a5
-----BEGIN CERTIFICATE-----
MIID4jCCAsqgAwIBAgIBAjANBgkqhkiG9w0BAQUFADB9MRQwEgYKCZImiZPyLGQB
GRYEdGVjaDEXMBUGCgmSJomT8ixkARkWB3NvdXJjZWQxEDAOBgNVBAoMB1NvdXJj
ZWQxHDAaBgNVBAsME1NvdXJjZWQgQm94IFJvb3QgQ0ExHDAaBgNVBAMME1NvdXJj
ZWQgQm94IFJvb3QgQ0EwHhcNMTkwODIxMTMzNTAwWhcNMjkwODIwMTMzNTAwWjCB
gzEUMBIGCgmSJomT8ixkARkWBHRlY2gxFzAVBgoJkiaJk/IsZAEZFgdzb3VyY2Vk
MRAwDgYDVQQKDAdTb3VyY2VkMR8wHQYDVQQLDBZTb3VyY2VkIEJveCBTaWduaW5n
IENBMR8wHQYDVQQDDBZTb3VyY2VkIEJveCBTaWduaW5nIENBMIIBIjANBgkqhkiG
9w0BAQEFAAOCAQ8AMIIBCgKCAQEAvyd3q8jkC+o+ry5txM0i1jFneB3cEmbQQavn
lx/scIoDJYOeLlwmp+yBLK5w0TdTh7u5QocopMiMAwIw6dqLBqy+OB0cnEyO+XU5
t0exsepntpKfr2xnB4u2ae2U8k9b4+Wv0zjuEs/h6D3rruwZnqXg0FqgsfIIAdBy
TGyEr7ciEHIQNDc++kGqjeEL6NTmlYS9K5uuRtGxpZe57Th2nIN/ucHFAO/uYo+9
ni+WrUUAEKfejlEHp1/vnuqPlU9uM3bJ6RcYRu3HC/uw44DK9ZK2uCCyOETu0u9X
fgSs41nw8cS0bne+qN1vtUJDXH05n3sqq9d+hP0j57hxVs10YQIDAQABo2YwZDAO
BgNVHQ8BAf8EBAMCAQYwEgYDVR0TAQH/BAgwBgEB/wIBADAdBgNVHQ4EFgQU+6F/
KxWj7bqbshQXzqOIJtMHFlcwHwYDVR0jBBgwFoAU1HSRSL1EliDmVfzlB+2tEZBB
0ykwDQYJKoZIhvcNAQEFBQADggEBAGRpkxVeKwxIsDJHyNj20p4xucbaUALAdzV7
YrXCeY9H7v5+Fi48+dOw9YHeULHFc6WbXMNIOGGDbTSZRPiYkapx06r3b0qTd6jz
Ot3vBxmWKkwwxdYlHcv5VbfJ1hwfn3Jdq+TaZx+k1a/ulhirJzkJGEyPHZxwjUk9
k5PLrmi5saHmfIKReeAMu1F3loJbPtTwkT9+/RJgwSPpEu4EqyaUpIMxYN/jdH0U
F8NsKR9bHlGA8kjaXBHFG9gLAUJR5ux0Ok9nzc6sssUZTs6bCAPik7Fox/Noak5D
QSKGdl5CSaIvL9p8/BcpyAMocTMrDRxjbhaNbypHzgepvUt5ZqU=
-----END CERTIFICATE-----
